target datalayout = "e-m:e-p270:32:32-p271:32:32-p272:64:64-i64:64-i128:128-f80:128-n8:16:32:64-S128"
target triple = "x86_64-pc-linux-gnu"

%struct.ResourceOwnerDesc = type { ptr, i32, i32, ptr, ptr }
%struct.RelationData = type { %struct.RelFileLocator, ptr, i32, i32, i8, i8, i8, i8, i8, i32, i32, i32, i32, ptr, ptr, i32, %struct.LockInfoData, ptr, ptr, ptr, ptr, ptr, i8, ptr, ptr, ptr, ptr, ptr, ptr, i32, ptr, i8, ptr, ptr, i32, i8, i32, ptr, i8, ptr, ptr, ptr, ptr, ptr, ptr, ptr, i32, ptr, ptr, ptr, ptr, ptr, ptr, ptr, ptr, ptr, ptr, ptr, ptr, ptr, ptr, ptr, ptr, ptr, ptr, ptr, i32, i8, ptr }
%struct.RelFileLocator = type { i32, i32, i32 }
%struct.LockInfoData = type { %struct.LockRelId }
%struct.LockRelId = type { i32, i32 }
%struct.relidcacheent = type { i32, ptr }

@RelationIdCache = internal global ptr null, align 8
@CurrentResourceOwner = external global ptr, align 8
@Mode = external global i32, align 4
@relref_resowner_desc = internal constant %struct.ResourceOwnerDesc { ptr @.str.57, i32 1, i32 300, ptr @ResOwnerReleaseRelation, ptr @ResOwnerPrintRelCache }, align 8

; Function Attrs: inlinehint nounwind uwtable
define internal i64 @PointerGetDatum(ptr noundef %0) #3 {
  %2 = alloca ptr, align 8
  store ptr %0, ptr %2, align 8
  %3 = load ptr, ptr %2, align 8
  %4 = ptrtoint ptr %3 to i64
  ret i64 %4
}

; Function Attrs: inlinehint nounwind uwtable
define internal void @ResourceOwnerRememberRelationRef(ptr noundef %0, ptr noundef %1) #3 {
  %3 = alloca ptr, align 8
  %4 = alloca ptr, align 8
  store ptr %0, ptr %3, align 8
  store ptr %1, ptr %4, align 8
  %5 = load ptr, ptr %3, align 8
  %6 = load ptr, ptr %4, align 8
  %7 = call i64 @PointerGetDatum(ptr noundef %6)
  call void @ResourceOwnerRemember(ptr noundef %5, i64 noundef %7, ptr noundef @relref_resowner_desc)
  ret void
}

; Function Attrs: nounwind uwtable
define dso_local void @RelationIncrementReferenceCount(ptr noundef %0) #0 {
  %2 = alloca ptr, align 8
  store ptr %0, ptr %2, align 8
  %3 = load ptr, ptr @CurrentResourceOwner, align 8
  call void @ResourceOwnerEnlarge(ptr noundef %3)
  %4 = load ptr, ptr %2, align 8
  %5 = getelementptr inbounds nuw %struct.RelationData, ptr %4, i32 0, i32 2
  %6 = load i32, ptr %5, align 8
  %7 = add i32 %6, 1
  store i32 %7, ptr %5, align 8
  %8 = load i32, ptr @Mode, align 4
  %9 = icmp eq i32 %8, 0
  br i1 %9, label %13, label %10

10:                                               ; preds = %1
  %11 = load ptr, ptr @CurrentResourceOwner, align 8
  %12 = load ptr, ptr %2, align 8
  call void @ResourceOwnerRememberRelationRef(ptr noundef %11, ptr noundef %12)
  br label %13

13:                                               ; preds = %10, %1
  ret void
}

; Function Attrs: nounwind uwtable
define dso_local ptr @RelationIdGetRelation(i32 noundef %0) #0 {
  %2 = alloca ptr, align 8
  %3 = alloca i32, align 4
  %4 = alloca ptr, align 8
  %5 = alloca ptr, align 8
  %6 = alloca i32, align 4
  store i32 %0, ptr %3, align 4
  call void @llvm.lifetime.start.p0(i64 8, ptr %4) #11
  br label %7

7:                                                ; preds = %1
  call void @llvm.lifetime.start.p0(i64 8, ptr %5) #11
  %8 = load ptr, ptr @RelationIdCache, align 8
  %9 = call ptr @hash_search(ptr noundef %8, ptr noundef %3, i32 noundef 0, ptr noundef null)
  store ptr %9, ptr %5, align 8
  %10 = load ptr, ptr %5, align 8
  %11 = icmp ne ptr %10, null
  br i1 %11, label %12, label %16

12:                                               ; preds = %7
  %13 = load ptr, ptr %5, align 8
  %14 = getelementptr inbounds nuw %struct.relidcacheent, ptr %13, i32 0, i32 1
  %15 = load ptr, ptr %14, align 8
  store ptr %15, ptr %4, align 8
  br label %17

16:                                               ; preds = %7
  store ptr null, ptr %4, align 8
  br label %17

17:                                               ; preds = %16, %12
  call void @llvm.lifetime.end.p0(i64 8, ptr %5) #11
  br label %18

18:                                               ; preds = %17
  br label %19

19:                                               ; preds = %18
  %20 = load ptr, ptr %4, align 8
  %21 = icmp ne ptr %20, null
  br i1 %21, label %22, label %38

22:                                               ; preds = %19
  %23 = load ptr, ptr %4, align 8
  %24 = getelementptr inbounds nuw %struct.RelationData, ptr %23, i32 0, i32 12
  %25 = load i32, ptr %24, align 4
  %26 = icmp ne i32 %25, 0
  br i1 %26, label %27, label %28

27:                                               ; preds = %22
  store ptr null, ptr %2, align 8
  store i32 1, ptr %6, align 4
  br label %47

28:                                               ; preds = %22
  %29 = load ptr, ptr %4, align 8
  call void @RelationIncrementReferenceCount(ptr noundef %29)
  %30 = load ptr, ptr %4, align 8
  %31 = getelementptr inbounds nuw %struct.RelationData, ptr %30, i32 0, i32 6
  %32 = load i8, ptr %31, align 2, !range !4, !noundef !5
  %33 = trunc i8 %32 to i1
  br i1 %33, label %36, label %34

34:                                               ; preds = %28
  %35 = load ptr, ptr %4, align 8
  call void @RelationRebuildRelation(ptr noundef %35)
  br label %36

36:                                               ; preds = %34, %28
  %37 = load ptr, ptr %4, align 8
  store ptr %37, ptr %2, align 8
  store i32 1, ptr %6, align 4
  br label %47

38:                                               ; preds = %19
  %39 = load i32, ptr %3, align 4
  %40 = call ptr @RelationBuildDesc(i32 noundef %39, i1 noundef zeroext true)
  store ptr %40, ptr %4, align 8
  %41 = load ptr, ptr %4, align 8
  %42 = icmp ne ptr %41, null
  br i1 %42, label %43, label %45

43:                                               ; preds = %38
  %44 = load ptr, ptr %4, align 8
  call void @RelationIncrementReferenceCount(ptr noundef %44)
  br label %45

45:                                               ; preds = %43, %38
  %46 = load ptr, ptr %4, align 8
  store ptr %46, ptr %2, align 8
  store i32 1, ptr %6, align 4
  br label %47

47:                                               ; preds = %45, %36, %27
  call void @llvm.lifetime.end.p0(i64 8, ptr %4) #11
  %48 = load ptr, ptr %2, align 8
  ret ptr %48
}