; Function Attrs: nounwind uwtable
define dso_local ptr @RelationIdGetRelation(i32 noundef %0) local_unnamed_addr #0 {
  %2 = alloca i32, align 4
  store i32 %0, ptr %2, align 4
  %3 = load ptr, ptr @RelationIdCache, align 8
  %4 = call ptr @hash_search(ptr noundef %3, ptr noundef nonnull %2, i32 noundef 0, ptr noundef null) #13
  %.not = icmp eq ptr %4, null
  br i1 %.not, label %.thread, label %5

5:                                                ; preds = %1
  %6 = getelementptr inbounds nuw i8, ptr %4, i64 8
  %7 = load ptr, ptr %6, align 8
  %.not15 = icmp eq ptr %7, null
  br i1 %.not15, label %.thread, label %8

8:                                                ; preds = %5
  %9 = getelementptr inbounds nuw i8, ptr %7, i64 52
  %10 = load i32, ptr %9, align 4
  %.not17 = icmp eq i32 %10, 0
  br i1 %.not17, label %11, label %RelationIncrementReferenceCount.exit18

11:                                               ; preds = %8
  %12 = load ptr, ptr @CurrentResourceOwner, align 8
  call void @ResourceOwnerEnlarge(ptr noundef %12) #13
  %13 = getelementptr inbounds nuw i8, ptr %7, i64 24
  %14 = load i32, ptr %13, align 8
  %15 = add i32 %14, 1
  store i32 %15, ptr %13, align 8
  %16 = load i32, ptr @Mode, align 4
  %17 = icmp eq i32 %16, 0
  br i1 %17, label %RelationIncrementReferenceCount.exit, label %18

18:                                               ; preds = %11
  %19 = load ptr, ptr @CurrentResourceOwner, align 8
  %20 = ptrtoint ptr %7 to i64
  call void @ResourceOwnerRemember(ptr noundef %19, i64 noundef %20, ptr noundef nonnull @relref_resowner_desc) #13
  br label %RelationIncrementReferenceCount.exit

RelationIncrementReferenceCount.exit:             ; preds = %11, %18
  %21 = getelementptr inbounds nuw i8, ptr %7, i64 34
  %22 = load i8, ptr %21, align 2, !range !6, !noundef !7
  %23 = trunc nuw i8 %22 to i1
  br i1 %23, label %RelationIncrementReferenceCount.exit18, label %24

24:                                               ; preds = %RelationIncrementReferenceCount.exit
  call fastcc void @RelationRebuildRelation(ptr noundef nonnull %7)
  br label %RelationIncrementReferenceCount.exit18

.thread:                                          ; preds = %1, %5
  %25 = load i32, ptr %2, align 4
  %26 = call fastcc ptr @RelationBuildDesc(i32 noundef %25, i1 noundef zeroext true)
  %.not16 = icmp eq ptr %26, null
  br i1 %.not16, label %RelationIncrementReferenceCount.exit18, label %27

27:                                               ; preds = %.thread
  %28 = load ptr, ptr @CurrentResourceOwner, align 8
  call void @ResourceOwnerEnlarge(ptr noundef %28) #13
  %29 = getelementptr inbounds nuw i8, ptr %26, i64 24
  %30 = load i32, ptr %29, align 8
  %31 = add i32 %30, 1
  store i32 %31, ptr %29, align 8
  %32 = load i32, ptr @Mode, align 4
  %33 = icmp eq i32 %32, 0
  br i1 %33, label %RelationIncrementReferenceCount.exit18, label %34

34:                                               ; preds = %27
  %35 = load ptr, ptr @CurrentResourceOwner, align 8
  %36 = ptrtoint ptr %26 to i64
  call void @ResourceOwnerRemember(ptr noundef %35, i64 noundef %36, ptr noundef nonnull @relref_resowner_desc) #13
  br label %RelationIncrementReferenceCount.exit18

RelationIncrementReferenceCount.exit18:           ; preds = %34, %27, %.thread, %RelationIncrementReferenceCount.exit, %24, %8
  %.0 = phi ptr [ null, %8 ], [ %7, %24 ], [ %7, %RelationIncrementReferenceCount.exit ], [ null, %.thread ], [ %26, %27 ], [ %26, %34 ]
  ret ptr %.0
}